(dp0
S"echo_params: 0.850000\nregulariser: 0.000100\nnum_reservoirs: 1\nreservoir_sizes: 1000\nin_weights: [('strategies', 'binary'), ('offsets', 0.5), ('scales', 1.0)]\nres_weights: [('strategies', 'uniform'), ('spectral_scales', 1.25), ('offsets', 0.5)]"
p1
(lp2
cnumpy.core.multiarray
scalar
p3
(cnumpy
dtype
p4
(S'f8'
p5
I0
I1
tp6
Rp7
(I3
S'<'
p8
NNNI-1
I-1
I0
tp9
bS'\xa9\x84g\x1a\x039\xe2?'
p10
tp11
Rp12
ag3
(g7
S'\xa4\xd2\xa0_\xaeI\xf4?'
p13
tp14
Rp15
ag3
(g7
S'O\x01\x87\xa8\x96\xce\xf1?'
p16
tp17
Rp18
ag3
(g7
S'\xc7g\xc9\xe7ns\xe2?'
p19
tp20
Rp21
ag3
(g7
S'\xc7F\xda\xdeS\xe2\xf1?'
p22
tp23
Rp24
as.