(dp0
N(lp1
cnumpy.core.multiarray
scalar
p2
(cnumpy
dtype
p3
(S'f8'
p4
I0
I1
tp5
Rp6
(I3
S'<'
p7
NNNI-1
I-1
I0
tp8
bS'\xb51%\xdc\xff[F@'
p9
tp10
Rp11
ag2
(g6
S'\xa9U\x96\xec=AF@'
p12
tp13
Rp14
ag2
(g6
S' @\x91\x83\xd2;F@'
p15
tp16
Rp17
as.