(dp0
N(lp1
cnumpy.core.multiarray
scalar
p2
(cnumpy
dtype
p3
(S'f8'
p4
I0
I1
tp5
Rp6
(I3
S'<'
p7
NNNI-1
I-1
I0
tp8
bS'\xda"G\x1feWF@'
p9
tp10
Rp11
ag2
(g6
S'\xa2:\xae\x05%UF@'
p12
tp13
Rp14
ag2
(g6
S'\xafy\x0cl\xedFF@'
p15
tp16
Rp17
as.