(dp0
S'\n        num_res: 10\nres_sizes:[200 200 200 200 200 200 200 200 200 200]\necho_params:[0.84999999999999998, 0.81111111111111112, 0.77222222222222214, 0.73333333333333328, 0.69444444444444442, 0.65555555555555556, 0.6166666666666667, 0.57777777777777772, 0.53888888888888886, 0.5]\ninput_scales:[0.20000000000000001, 0.20000000000000001, 0.20000000000000001, 0.20000000000000001, 0.20000000000000001, 0.20000000000000001, 0.20000000000000001, 0.20000000000000001, 0.20000000000000001, 0.20000000000000001]\nspectral_scales:[0.90000000000000002, 0.93888888888888888, 0.97777777777777786, 1.0166666666666666, 1.0555555555555556, 1.0944444444444446, 1.1333333333333333, 1.1722222222222223, 1.2111111111111112, 1.25]\n        regulariser: 0.000100'
p1
(lp2
cnumpy.core.multiarray
scalar
p3
(cnumpy
dtype
p4
(S'f8'
p5
I0
I1
tp6
Rp7
(I3
S'<'
p8
NNNI-1
I-1
I0
tp9
bS'\x96\x95\xc2\x0f\xfe\xaf\xe5?'
p10
tp11
Rp12
ag3
(g7
S'\xadm\xd2\x12\x02\xd8\xf1?'
p13
tp14
Rp15
ag3
(g7
S'\xed\x1e\x9c/\xe7\xdf\xf2?'
p16
tp17
Rp18
ag3
(g7
S'\xf5\xa1\x8bU\n8\xe6?'
p19
tp20
Rp21
ag3
(g7
S'!H[\xb4E\x19\xea?'
p22
tp23
Rp24
ag3
(g7
S'Td \x1fXa\xea?'
p25
tp26
Rp27
ag3
(g7
S'\x0e5\xad\x88\xfd.\xdb?'
p28
tp29
Rp30
ag3
(g7
S'\xa7TlM\xe3\xb6\xd1?'
p31
tp32
Rp33
ag3
(g7
S'So\xdf\x15/i\xf1?'
p34
tp35
Rp36
ag3
(g7
S'\x14I\x1e\x0b\xb6\x05\xed?'
p37
tp38
Rp39
as.