(dp0
S'\n        num_res: 10\nres_sizes:[100 111 122 133 144 155 166 177 188 200]\necho_params:[0.84999999999999998, 0.81111111111111112, 0.77222222222222214, 0.73333333333333328, 0.69444444444444442, 0.65555555555555556, 0.6166666666666667, 0.57777777777777772, 0.53888888888888886, 0.5]\ninput_scales:[0.5, 0.5, 0.5, 0.5, 0.5, 0.5, 0.5, 0.5, 0.5, 0.5]\nspectral_scales:[0.90000000000000002, 0.93888888888888888, 0.97777777777777786, 1.0166666666666666, 1.0555555555555556, 1.0944444444444446, 1.1333333333333333, 1.1722222222222223, 1.2111111111111112, 1.25]\n        regulariser: 0.001000'
p1
(lp2
cnumpy.core.multiarray
scalar
p3
(cnumpy
dtype
p4
(S'f8'
p5
I0
I1
tp6
Rp7
(I3
S'<'
p8
NNNI-1
I-1
I0
tp9
bS'\x91O\xc8\xd4p>\xfa?'
p10
tp11
Rp12
ag3
(g7
S'8\x8a\xe1*DA\xe9?'
p13
tp14
Rp15
ag3
(g7
S'\xbe\xe9C_\x97\x92\xe7?'
p16
tp17
Rp18
ag3
(g7
S'\xeak"\xc2\x90\xc4\xe0?'
p19
tp20
Rp21
ag3
(g7
S'D\xd1h\x8f\xf4\xf4\xe2?'
p22
tp23
Rp24
ag3
(g7
S'\x1ba\xc8:|?\x18@'
p25
tp26
Rp27
ag3
(g7
S'\x08\xe3<"\ta\x07@'
p28
tp29
Rp30
ag3
(g7
S'\\|\xe1\x85\x1cU\xf4?'
p31
tp32
Rp33
ag3
(g7
S'\xab\x13\xd6\x9cGG\xed?'
p34
tp35
Rp36
ag3
(g7
S'?/\xb0zi\xc6\xee?'
p37
tp38
Rp39
as.