(dp0
S'\n        num_res: 10\nres_sizes:[ 50  72  94 116 138 161 183 205 227 250]\necho_params:[0.84999999999999998, 0.81111111111111112, 0.77222222222222214, 0.73333333333333328, 0.69444444444444442, 0.65555555555555556, 0.6166666666666667, 0.57777777777777772, 0.53888888888888886, 0.5]\ninput_scales:[0.20000000000000001, 0.28888888888888892, 0.37777777777777777, 0.46666666666666667, 0.55555555555555558, 0.64444444444444449, 0.73333333333333339, 0.82222222222222219, 0.9111111111111112, 1.0]\nspectral_scales:[0.90000000000000002, 0.93888888888888888, 0.97777777777777786, 1.0166666666666666, 1.0555555555555556, 1.0944444444444446, 1.1333333333333333, 1.1722222222222223, 1.2111111111111112, 1.25]\n        regulariser: 0.010000'
p1
(lp2
cnumpy.core.multiarray
scalar
p3
(cnumpy
dtype
p4
(S'f8'
p5
I0
I1
tp6
Rp7
(I3
S'<'
p8
NNNI-1
I-1
I0
tp9
bS'8K\xe4t\xb7a\xef?'
p10
tp11
Rp12
ag3
(g7
S'\x08b\x1c\x90\xf7\x0c\xee?'
p13
tp14
Rp15
ag3
(g7
S'E\xb2\x9acw*\xe7?'
p16
tp17
Rp18
ag3
(g7
S'#\xf8t|\x86S\xe6?'
p19
tp20
Rp21
ag3
(g7
S'`\xe9\xdcQj\xea\xef?'
p22
tp23
Rp24
ag3
(g7
S'z`4\x80\x88\xbc\xe2?'
p25
tp26
Rp27
ag3
(g7
S'\xca\xd8b\xb2b\x15\xe7?'
p28
tp29
Rp30
ag3
(g7
S'jMV?X\xd8\xea?'
p31
tp32
Rp33
ag3
(g7
S'\x01b\xadu\xddC\xef?'
p34
tp35
Rp36
ag3
(g7
S'\x86\xef\x15\x9f\xf2\xc5\xe2?'
p37
tp38
Rp39
as.