(dp0
S'\n        num_res: 10\nres_sizes:[100 111 122 133 144 155 166 177 188 200]\necho_params:[0.84999999999999998, 0.81111111111111112, 0.77222222222222214, 0.73333333333333328, 0.69444444444444442, 0.65555555555555556, 0.6166666666666667, 0.57777777777777772, 0.53888888888888886, 0.5]\ninput_scales:[0.5, 0.5, 0.5, 0.5, 0.5, 0.5, 0.5, 0.5, 0.5, 0.5]\nspectral_scales:[0.90000000000000002, 0.87777777777777777, 0.85555555555555551, 0.83333333333333337, 0.81111111111111112, 0.78888888888888886, 0.76666666666666661, 0.74444444444444446, 0.72222222222222221, 0.69999999999999996]\n        regulariser: 0.010000'
p1
(lp2
cnumpy.core.multiarray
scalar
p3
(cnumpy
dtype
p4
(S'f8'
p5
I0
I1
tp6
Rp7
(I3
S'<'
p8
NNNI-1
I-1
I0
tp9
bS'\xd0\xda+g%p\xed?'
p10
tp11
Rp12
ag3
(g7
S'\xf6\xc7w\xd4\xeb\xa1\xf4?'
p13
tp14
Rp15
ag3
(g7
S'\xf1\xe6\xc0S\xb5_\xf1?'
p16
tp17
Rp18
ag3
(g7
S'h\xbcL)h\x89\xf6?'
p19
tp20
Rp21
ag3
(g7
S'K\xf3\xd9m\t4\xe9?'
p22
tp23
Rp24
ag3
(g7
S'\x9c\xd1r\xc7\x85\xc8\xf1?'
p25
tp26
Rp27
ag3
(g7
S'\x87\xc1\x96\x12\x9c"\xed?'
p28
tp29
Rp30
ag3
(g7
S'\xa0\xb7\x86\x8bx\x84\xf2?'
p31
tp32
Rp33
ag3
(g7
S'9|\xa5\xbf)\xe8\xe5?'
p34
tp35
Rp36
ag3
(g7
S'\xe0{\x1bzo\x8f\xe8?'
p37
tp38
Rp39
as.