(dp0
S'\n        num_res: 10\nres_sizes:[200 200 200 200 200 200 200 200 200 200]\necho_params:[0.84999999999999998, 0.81111111111111112, 0.77222222222222214, 0.73333333333333328, 0.69444444444444442, 0.65555555555555556, 0.6166666666666667, 0.57777777777777772, 0.53888888888888886, 0.5]\ninput_scales:[0.20000000000000001, 0.20000000000000001, 0.20000000000000001, 0.20000000000000001, 0.20000000000000001, 0.20000000000000001, 0.20000000000000001, 0.20000000000000001, 0.20000000000000001, 0.20000000000000001]\nspectral_scales:[1.0, 1.0, 1.0, 1.0, 1.0, 1.0, 1.0, 1.0, 1.0, 1.0]\n        sparsities:[1.0, 1.0, 1.0, 1.0, 1.0, 1.0, 1.0, 1.0, 1.0, 1.0]\nregulariser: 0.000100'
p1
(lp2
cnumpy.core.multiarray
scalar
p3
(cnumpy
dtype
p4
(S'f8'
p5
I0
I1
tp6
Rp7
(I3
S'<'
p8
NNNI-1
I-1
I0
tp9
bS'\xccq\xe3\xd8_s\xd1?'
p10
tp11
Rp12
ag3
(g7
S'\xa9\xec\xd7\xbd\xec\x10\xb3?'
p13
tp14
Rp15
ag3
(g7
S'\xb6\x01+\xba\x8e:\xc7?'
p16
tp17
Rp18
ag3
(g7
S'\xbb\xf5\xd1xy\x87\xda?'
p19
tp20
Rp21
ag3
(g7
S'5\x10\xd0\xa4*\xd3\xd9?'
p22
tp23
Rp24
ag3
(g7
S'\xfeZ\x90{\x80\x1a\xdc?'
p25
tp26
Rp27
ag3
(g7
S's0N6\xf4\xe9\xbe?'
p28
tp29
Rp30
ag3
(g7
S'\x85ab\xed(i\xd5?'
p31
tp32
Rp33
ag3
(g7
S'#\xfak(a6\xd3?'
p34
tp35
Rp36
ag3
(g7
S'n;\xfc\xac\xf2\xdf\xdb?'
p37
tp38
Rp39
as.