cnumpy.core.multiarray
_reconstruct
p0
(cnumpy
ndarray
p1
(I0
tp2
S'b'
p3
tp4
Rp5
(I1
(I3
tp6
cnumpy
dtype
p7
(S'f8'
p8
I0
I1
tp9
Rp10
(I3
S'<'
p11
NNNI-1
I-1
I0
tp12
bI00
S'=\x1eCa%\x07\xc7?\x8a\xc0l\x95=/\xd9?\xa9\x84"\x92\xb8\xed\xe2?'
p13
tp14
b.