(dp0
S'\n        num_res: 10\nres_sizes:[ 50  83 116 150 183 216 250 283 316 350]\necho_params:[0.5, 0.53888888888888886, 0.57777777777777772, 0.6166666666666667, 0.65555555555555556, 0.69444444444444442, 0.73333333333333339, 0.77222222222222225, 0.81111111111111112, 0.84999999999999998]\ninput_scales:[0.5, 0.5, 0.5, 0.5, 0.5, 0.5, 0.5, 0.5, 0.5, 0.5]\nspectral_scales:[0.5, 0.58333333333333337, 0.66666666666666663, 0.75, 0.83333333333333326, 0.91666666666666663, 1.0, 1.0833333333333333, 1.1666666666666665, 1.25]\n        regulariser: 0.000100'
p1
(lp2
cnumpy.core.multiarray
scalar
p3
(cnumpy
dtype
p4
(S'f8'
p5
I0
I1
tp6
Rp7
(I3
S'<'
p8
NNNI-1
I-1
I0
tp9
bS'\xe0\x89\x1c\xdf2E\xe6?'
p10
tp11
Rp12
ag3
(g7
S'\xc5\xa6\x90LM\n\xdc?'
p13
tp14
Rp15
ag3
(g7
S'\xe3\xfb\xf9\xbc\x0c}\xda?'
p16
tp17
Rp18
ag3
(g7
S'\xa8O&\xfd\xeb\xe6\xe5?'
p19
tp20
Rp21
ag3
(g7
S'\xea\xf0\xbbo\xa3\x01\xda?'
p22
tp23
Rp24
ag3
(g7
S'X\xb3\x15\xeb\xce\xcb\xea?'
p25
tp26
Rp27
ag3
(g7
S'\xab.\xcaTvE\xd8?'
p28
tp29
Rp30
ag3
(g7
S'-\x8dC\xb54\x14\xe2?'
p31
tp32
Rp33
ag3
(g7
S'bZ\xf0\xf7u\xff\xd3?'
p34
tp35
Rp36
ag3
(g7
S'>\x16E\xed\x92\xbe\xe6?'
p37
tp38
Rp39
as.