(dp0
S'r_size:1000\ne_prm:0.200000\ni_scl:0.733333\ns_scl:0.200000\nsp:1.000000\nreg:0.010000'
p1
(lp2
cnumpy.core.multiarray
scalar
p3
(cnumpy
dtype
p4
(S'f8'
p5
I0
I1
tp6
Rp7
(I3
S'<'
p8
NNNI-1
I-1
I0
tp9
bS'/\xbf\x96\x81^\xec\xef?'
p10
tp11
Rp12
ag3
(g7
S'\xa1\xd6\xa6[4\xd4\xef?'
p13
tp14
Rp15
ag3
(g7
S'Z\xe3\xc6;H\xf5\xef?'
p16
tp17
Rp18
asS'r_size:1000\ne_prm:0.200000\ni_scl:0.555556\ns_scl:0.200000\nsp:0.100000\nreg:0.010000'
p19
(lp20
g3
(g7
S'\xb3(Gb\xea\xc7\xee?'
p21
tp22
Rp23
ag3
(g7
S'\x03\x82\x9b\xaf\xf5\xa3\xee?'
p24
tp25
Rp26
ag3
(g7
S'\x82u\x8czI6\xef?'
p27
tp28
Rp29
asS'r_size:500\ne_prm:0.200000\ni_scl:0.377778\ns_scl:0.200000\nsp:0.100000\nreg:0.010000'
p30
(lp31
g3
(g7
S'#\xc9|\x08\x10\xaa\xee?'
p32
tp33
Rp34
ag3
(g7
S'E\xa9\x10BP\x9b\xee?'
p35
tp36
Rp37
ag3
(g7
S'8\xd5\x885^w\xef?'
p38
tp39
Rp40
asS'r_size:750\ne_prm:0.200000\ni_scl:0.466667\ns_scl:0.200000\nsp:1.000000\nreg:0.010000'
p41
(lp42
g3
(g7
S'8\xa7\xad\xc4\xff\\\xf0?'
p43
tp44
Rp45
ag3
(g7
S'3\x01&\xbb\x97^\xf0?'
p46
tp47
Rp48
ag3
(g7
S'\xb8\x08~\x0c\xbbW\xf0?'
p49
tp50
Rp51
asS'r_size:1000\ne_prm:0.200000\ni_scl:0.377778\ns_scl:0.200000\nsp:0.500000\nreg:0.010000'
p52
(lp53
g3
(g7
S'E\xe7\xb6@\xc6\xaa\xef?'
p54
tp55
Rp56
ag3
(g7
S'\xcb0s\xbd\x87\xbf\xef?'
p57
tp58
Rp59
ag3
(g7
S'\x0e\xbe\x89\x12\xe8\x9f\xef?'
p60
tp61
Rp62
asS'r_size:1250\ne_prm:0.200000\ni_scl:0.200000\ns_scl:0.200000\nsp:0.100000\nreg:0.010000'
p63
(lp64
g3
(g7
S'x\xefyW1\xaf\xee?'
p65
tp66
Rp67
ag3
(g7
S'h\x8bu\xa0%\xb2\xee?'
p68
tp69
Rp70
ag3
(g7
S'*-\xb3d\xb2\x92\xee?'
p71
tp72
Rp73
asS'r_size:750\ne_prm:0.200000\ni_scl:0.644444\ns_scl:0.200000\nsp:0.500000\nreg:0.010000'
p74
(lp75
g3
(g7
S'\xea#u\xd5\xdd~\xf0?'
p76
tp77
Rp78
ag3
(g7
S'P(\x06\x1a\xddy\xf0?'
p79
tp80
Rp81
ag3
(g7
S'\x8e\xe7|\xa6\xaa\x9b\xf0?'
p82
tp83
Rp84
asS'r_size:1000\ne_prm:0.200000\ni_scl:0.644444\ns_scl:0.200000\nsp:0.100000\nreg:0.010000'
p85
(lp86
g3
(g7
S'w\xc9\xf4\xa8\x13\xa6\xee?'
p87
tp88
Rp89
ag3
(g7
S'\xfac\xf2x\xac\xd5\xee?'
p90
tp91
Rp92
ag3
(g7
S'\xfd\xa3\n\xad\xb9\xa6\xee?'
p93
tp94
Rp95
asS'r_size:1250\ne_prm:0.200000\ni_scl:0.200000\ns_scl:0.200000\nsp:0.500000\nreg:0.010000'
p96
(lp97
g3
(g7
S'lAgR\xc5\xcf\xee?'
p98
tp99
Rp100
ag3
(g7
S'{\x00D\x81\xbe\xd5\xee?'
p101
tp102
Rp103
ag3
(g7
S'\xa1!\xe3\x95\x1b\xc7\xee?'
p104
tp105
Rp106
asS'r_size:1250\ne_prm:0.200000\ni_scl:0.733333\ns_scl:0.200000\nsp:0.500000\nreg:0.010000'
p107
(lp108
g3
(g7
S'\x89\xff\xc5=>\xca\xf0?'
p109
tp110
Rp111
ag3
(g7
S']V<\xf1\xd9g\xf1?'
p112
tp113
Rp114
ag3
(g7
S'0$\x8dX|k\xf1?'
p115
tp116
Rp117
asS'r_size:1250\ne_prm:0.200000\ni_scl:0.555556\ns_scl:0.200000\nsp:1.000000\nreg:0.010000'
p118
(lp119
g3
(g7
S'\xbe$;i\x80R\xf0?'
p120
tp121
Rp122
ag3
(g7
S'\x93\x96\x97\xfc\xa4:\xf0?'
p123
tp124
Rp125
ag3
(g7
S'^5\x95\xe6\xa8R\xf0?'
p126
tp127
Rp128
asS'r_size:750\ne_prm:0.200000\ni_scl:0.377778\ns_scl:0.200000\nsp:0.500000\nreg:0.010000'
p129
(lp130
g3
(g7
S'\x1bq\xb0y \xce\xef?'
p131
tp132
Rp133
ag3
(g7
S'W\x05\x0715\xc8\xef?'
p134
tp135
Rp136
ag3
(g7
S'\xea\xe7\x88?\xbe\xd9\xef?'
p137
tp138
Rp139
asS'r_size:1250\ne_prm:0.200000\ni_scl:0.377778\ns_scl:0.200000\nsp:0.500000\nreg:0.010000'
p140
(lp141
g3
(g7
S'Pa\xd6Nm\xa5\xef?'
p142
tp143
Rp144
ag3
(g7
S'm/\xf4\xc2\xfd\xd3\xef?'
p145
tp146
Rp147
ag3
(g7
S'k\xbc\xdf\x8a\xe1\xcf\xef?'
p148
tp149
Rp150
asS'r_size:500\ne_prm:0.200000\ni_scl:0.822222\ns_scl:0.200000\nsp:0.500000\nreg:0.010000'
p151
(lp152
g3
(g7
S'\x91\t\xff\x12\x1aV\xf2?'
p153
tp154
Rp155
ag3
(g7
S'\xe1mC\xdf\xaeS\xf1?'
p156
tp157
Rp158
ag3
(g7
S'\x8f\xac\x89\x1d]F\xf1?'
p159
tp160
Rp161
asS'r_size:750\ne_prm:0.200000\ni_scl:0.555556\ns_scl:0.200000\nsp:1.000000\nreg:0.010000'
p162
(lp163
g3
(g7
S'r\xd0\x87\xbd\x1dV\xf0?'
p164
tp165
Rp166
ag3
(g7
S'\xc4\xc0\xdd\x158P\xf0?'
p167
tp168
Rp169
ag3
(g7
S',\xac\x0b\x07KL\xf0?'
p170
tp171
Rp172
asS'r_size:500\ne_prm:0.200000\ni_scl:0.555556\ns_scl:0.200000\nsp:0.100000\nreg:0.010000'
p173
(lp174
g3
(g7
S'\x9f:$ \x19\x17\xf0?'
p175
tp176
Rp177
ag3
(g7
S'\x7f;\x8a\x89&\xbb\xee?'
p178
tp179
Rp180
ag3
(g7
S'\xe5\xe7c_\xe1\xa2\xee?'
p181
tp182
Rp183
asS'r_size:500\ne_prm:0.200000\ni_scl:0.644444\ns_scl:0.200000\nsp:1.000000\nreg:0.010000'
p184
(lp185
g3
(g7
S'\xa8\x95\xe9c"?\xf0?'
p186
tp187
Rp188
ag3
(g7
S'\x8b\x91\x94_`>\xf0?'
p189
tp190
Rp191
ag3
(g7
S'\x13NX\x13\xb4+\xf0?'
p192
tp193
Rp194
asS'r_size:1000\ne_prm:0.200000\ni_scl:0.733333\ns_scl:0.200000\nsp:0.100000\nreg:0.010000'
p195
(lp196
g3
(g7
S'\x13WR"\xaf=\xef?'
p197
tp198
Rp199
ag3
(g7
S'\x08nrmU*\xf0?'
p200
tp201
Rp202
ag3
(g7
S'E\x94\xad/\xc8\xe9\xf0?'
p203
tp204
Rp205
asS'r_size:500\ne_prm:0.200000\ni_scl:0.288889\ns_scl:0.200000\nsp:0.100000\nreg:0.010000'
p206
(lp207
g3
(g7
S'\xe0y+\xb4\xaf\xbe\xee?'
p208
tp209
Rp210
ag3
(g7
S'YA\x06\x14\xfb9\xef?'
p211
tp212
Rp213
ag3
(g7
S'KUOu\xc2\xa0\xee?'
p214
tp215
Rp216
asS'r_size:1250\ne_prm:0.200000\ni_scl:0.644444\ns_scl:0.200000\nsp:1.000000\nreg:0.010000'
p217
(lp218
g3
(g7
S'\x9de\x9e\x13\xfa\x1f\xf0?'
p219
tp220
Rp221
ag3
(g7
S'\x83fOY\xe1\x16\xf0?'
p222
tp223
Rp224
ag3
(g7
S'Y\xbavF\x16\xad\xef?'
p225
tp226
Rp227
asS'r_size:1250\ne_prm:0.200000\ni_scl:0.466667\ns_scl:0.200000\nsp:0.100000\nreg:0.010000'
p228
(lp229
g3
(g7
S'\xfeIKu\xf7\xa2\xee?'
p230
tp231
Rp232
ag3
(g7
S'+\x14\xe2\xa5\x87\xe5\xef?'
p233
tp234
Rp235
ag3
(g7
S'rZ3\x93\x08\x9f\xee?'
p236
tp237
Rp238
asS'r_size:1000\ne_prm:0.200000\ni_scl:0.466667\ns_scl:0.200000\nsp:0.100000\nreg:0.010000'
p239
(lp240
g3
(g7
S'\xa9>\xa4H\x16\xa0\xf0?'
p241
tp242
Rp243
ag3
(g7
S'\xa9\xb3!P\xc7\x9c\xee?'
p244
tp245
Rp246
ag3
(g7
S'\x92\xe8u\xb6\x9e\xc3\xee?'
p247
tp248
Rp249
asS'r_size:500\ne_prm:0.200000\ni_scl:0.377778\ns_scl:0.200000\nsp:1.000000\nreg:0.010000'
p250
(lp251
g3
(g7
S'\xac:\xc9\xa9\xc1&\xf0?'
p252
tp253
Rp254
ag3
(g7
S'\xdd\x04\xbd\x14\xc0"\xf0?'
p255
tp256
Rp257
ag3
(g7
S'\xb4d\xab\xde\xc5\x17\xf0?'
p258
tp259
Rp260
asS'r_size:1000\ne_prm:0.200000\ni_scl:0.288889\ns_scl:0.200000\nsp:0.100000\nreg:0.010000'
p261
(lp262
g3
(g7
S'\xea\xc1xI\x95\xba\xee?'
p263
tp264
Rp265
ag3
(g7
S'\xd6\xec\xc4\xe0\xec\x94\xee?'
p266
tp267
Rp268
ag3
(g7
S'\x86B\xfeE\xf1\xd5\xee?'
p269
tp270
Rp271
asS'r_size:500\ne_prm:0.200000\ni_scl:0.911111\ns_scl:0.200000\nsp:0.500000\nreg:0.010000'
p272
(lp273
g3
(g7
S'"\xe55\xb7\x8b\xfc\xf2?'
p274
tp275
Rp276
ag3
(g7
S'S\x8b\xf1\xa6\xd3\xcf\xf3?'
p277
tp278
Rp279
ag3
(g7
S'\xcd\x87i2`(\xf3?'
p280
tp281
Rp282
asS'r_size:750\ne_prm:0.200000\ni_scl:0.377778\ns_scl:0.200000\nsp:1.000000\nreg:0.010000'
p283
(lp284
g3
(g7
S'\x9d\x92\xb0\xb2w_\xf0?'
p285
tp286
Rp287
ag3
(g7
S',\xe5R\xb8,P\xf0?'
p288
tp289
Rp290
ag3
(g7
S'N\xb3\xf1\xd3\x1cK\xf0?'
p291
tp292
Rp293
asS'r_size:500\ne_prm:0.200000\ni_scl:0.644444\ns_scl:0.200000\nsp:0.100000\nreg:0.010000'
p294
(lp295
g3
(g7
S'6\xb0ffG\x10\xf0?'
p296
tp297
Rp298
ag3
(g7
S'z\xfaC\xcff\xa8\xee?'
p299
tp300
Rp301
ag3
(g7
S'\xad\xe8\x80}VI\xef?'
p302
tp303
Rp304
asS'r_size:1000\ne_prm:0.200000\ni_scl:0.288889\ns_scl:0.200000\nsp:1.000000\nreg:0.010000'
p305
(lp306
g3
(g7
S'p\x7f\x0f\xa4\xeeV\xf0?'
p307
tp308
Rp309
ag3
(g7
S'\xc0\x07u\x8e\xf54\xf0?'
p310
tp311
Rp312
ag3
(g7
S'8\xd7\x0b\x08\x1fO\xf0?'
p313
tp314
Rp315
asS'r_size:1000\ne_prm:0.200000\ni_scl:0.555556\ns_scl:0.200000\nsp:1.000000\nreg:0.010000'
p316
(lp317
g3
(g7
S'\x0e\xdfR\xc03`\xf0?'
p318
tp319
Rp320
ag3
(g7
S'\xfcc\x9d\xaclg\xf0?'
p321
tp322
Rp323
ag3
(g7
S'\x94\xca\x84$\xaf`\xf0?'
p324
tp325
Rp326
asS'r_size:750\ne_prm:0.200000\ni_scl:0.555556\ns_scl:0.200000\nsp:0.100000\nreg:0.010000'
p327
(lp328
g3
(g7
S'g\xfe\xae\x1e\xa5\xce\xee?'
p329
tp330
Rp331
ag3
(g7
S'\xece_#O\xa3\xee?'
p332
tp333
Rp334
ag3
(g7
S'\xdel\x0f\xf4\xc5R\xef?'
p335
tp336
Rp337
asS'r_size:750\ne_prm:0.200000\ni_scl:0.288889\ns_scl:0.200000\nsp:1.000000\nreg:0.010000'
p338
(lp339
g3
(g7
S'\xad\x02\xd3\x9b\xd3)\xf0?'
p340
tp341
Rp342
ag3
(g7
S'\x08\xe5\x81H\xad6\xf0?'
p343
tp344
Rp345
ag3
(g7
S'/#"o\x16<\xf0?'
p346
tp347
Rp348
asS'r_size:750\ne_prm:0.200000\ni_scl:0.733333\ns_scl:0.200000\nsp:0.500000\nreg:0.010000'
p349
(lp350
g3
(g7
S'\xe1\xb4\x11\x951\xd1\xf0?'
p351
tp352
Rp353
ag3
(g7
S'\xc8\xcb\xfaZb\xd6\xf0?'
p354
tp355
Rp356
ag3
(g7
S'\xd0\x90>\xa9\xfd\xd1\xf0?'
p357
tp358
Rp359
asS'r_size:1000\ne_prm:0.200000\ni_scl:0.733333\ns_scl:0.200000\nsp:0.500000\nreg:0.010000'
p360
(lp361
g3
(g7
S'\xb9]ND\xe4.\xf1?'
p362
tp363
Rp364
ag3
(g7
S'\xfeA&*\x91\xe9\xf0?'
p365
tp366
Rp367
ag3
(g7
S'\xc4\x11cg\xf2\xc5\xf0?'
p368
tp369
Rp370
asS'r_size:750\ne_prm:0.200000\ni_scl:0.466667\ns_scl:0.200000\nsp:0.500000\nreg:0.010000'
p371
(lp372
g3
(g7
S'\x05\xa5m\x1d\xc6\x16\xf0?'
p373
tp374
Rp375
ag3
(g7
S'\xbfH\xeeZR\x06\xf0?'
p376
tp377
Rp378
ag3
(g7
S'\x17\x81\x08v\xb6#\xf0?'
p379
tp380
Rp381
asS'r_size:750\ne_prm:0.200000\ni_scl:0.644444\ns_scl:0.200000\nsp:1.000000\nreg:0.010000'
p382
(lp383
g3
(g7
S'mUh\x91\xe0<\xf0?'
p384
tp385
Rp386
ag3
(g7
S'-W\xe1\x0b\xba:\xf0?'
p387
tp388
Rp389
ag3
(g7
S'\xfd\xda0\xdf B\xf0?'
p390
tp391
Rp392
asS'r_size:1250\ne_prm:0.200000\ni_scl:0.822222\ns_scl:0.200000\nsp:0.500000\nreg:0.010000'
p393
(lp394
g3
(g7
S'P\xd8\xae\xa3&C\xf1?'
p395
tp396
Rp397
ag3
(g7
S'\xd5\x84\x01\x8ac\xc9\xf1?'
p398
tp399
Rp400
ag3
(g7
S'.\xfeFP\x1dw\xf1?'
p401
tp402
Rp403
asS'r_size:500\ne_prm:0.200000\ni_scl:0.288889\ns_scl:0.200000\nsp:0.500000\nreg:0.010000'
p404
(lp405
g3
(g7
S'\xa0m\x0b]\xf8p\xef?'
p406
tp407
Rp408
ag3
(g7
S'\x8aaR\xe7-S\xef?'
p409
tp410
Rp411
ag3
(g7
S'\xfen\x0e\x0b\xe5J\xef?'
p412
tp413
Rp414
asS'r_size:1250\ne_prm:0.200000\ni_scl:0.200000\ns_scl:0.200000\nsp:1.000000\nreg:0.010000'
p415
(lp416
g3
(g7
S'\x13C\x81\xbbG3\xf0?'
p417
tp418
Rp419
ag3
(g7
S"'\x96t\x00\x9c:\xf0?"
p420
tp421
Rp422
ag3
(g7
S'\xbe\x1a+[\x0cB\xf0?'
p423
tp424
Rp425
asS'r_size:500\ne_prm:0.200000\ni_scl:0.466667\ns_scl:0.200000\nsp:0.100000\nreg:0.010000'
p426
(lp427
g3
(g7
S'x\xee\xb9u\x06\x16\xf0?'
p428
tp429
Rp430
ag3
(g7
S'\xa4\xb4*\xb49y\xef?'
p431
tp432
Rp433
ag3
(g7
S')\xdc\xc4\x11\x9c\x9e\xee?'
p434
tp435
Rp436
asS'r_size:500\ne_prm:0.200000\ni_scl:0.644444\ns_scl:0.200000\nsp:0.500000\nreg:0.010000'
p437
(lp438
g3
(g7
S'\xfe\xcf\xcd-\xf1p\xf0?'
p439
tp440
Rp441
ag3
(g7
S'6\x04W\xd4\xffy\xf0?'
p442
tp443
Rp444
ag3
(g7
S'[z\x17E\x87\xae\xf0?'
p445
tp446
Rp447
asS'r_size:500\ne_prm:0.200000\ni_scl:0.555556\ns_scl:0.200000\nsp:0.500000\nreg:0.010000'
p448
(lp449
g3
(g7
S'\xbf\xf1\xb3\xd8eI\xf0?'
p450
tp451
Rp452
ag3
(g7
S'\x17T\xc7\xfc<T\xf0?'
p453
tp454
Rp455
ag3
(g7
S'\x83Xh\x0fI/\xf0?'
p456
tp457
Rp458
asS'r_size:1000\ne_prm:0.200000\ni_scl:0.200000\ns_scl:0.200000\nsp:1.000000\nreg:0.010000'
p459
(lp460
g3
(g7
S'\x83\xa3\xac\xd7v\x14\xf0?'
p461
tp462
Rp463
ag3
(g7
S'D\xb72\xdb\x18\x1e\xf0?'
p464
tp465
Rp466
ag3
(g7
S'\x11DF\xfel1\xf0?'
p467
tp468
Rp469
asS'r_size:1250\ne_prm:0.200000\ni_scl:0.733333\ns_scl:0.200000\nsp:1.000000\nreg:0.010000'
p470
(lp471
g3
(g7
S'\xb3\x80\xdf_`r\xef?'
p472
tp473
Rp474
ag3
(g7
S'+\xa6h\x1b\x1b~\xef?'
p475
tp476
Rp477
ag3
(g7
S'\xd5\x01\x8a\xd1\xdc\x8f\xef?'
p478
tp479
Rp480
asS'r_size:750\ne_prm:0.200000\ni_scl:0.555556\ns_scl:0.200000\nsp:0.500000\nreg:0.010000'
p481
(lp482
g3
(g7
S'\xead\x81\x15f>\xf0?'
p483
tp484
Rp485
ag3
(g7
S'le\xd7\xc3\xd2\x8d\xf0?'
p486
tp487
Rp488
ag3
(g7
S'C\xddB\xf87C\xf0?'
p489
tp490
Rp491
asS'r_size:500\ne_prm:0.200000\ni_scl:0.200000\ns_scl:0.200000\nsp:1.000000\nreg:0.010000'
p492
(lp493
g3
(g7
S'mf\xa1\xd9\x9fK\xef?'
p494
tp495
Rp496
ag3
(g7
S'P\xbc8\x17\r\x8d\xef?'
p497
tp498
Rp499
ag3
(g7
S'F\xa1\x05S\xe7\x97\xef?'
p500
tp501
Rp502
asS'r_size:750\ne_prm:0.200000\ni_scl:0.733333\ns_scl:0.200000\nsp:0.100000\nreg:0.010000'
p503
(lp504
g3
(g7
S'\x05\x029\x89\xcb\xcb\xef?'
p505
tp506
Rp507
ag3
(g7
S'\xcf>\xe5\x88\xca\t\xf0?'
p508
tp509
Rp510
ag3
(g7
S'\xd9@K\x1a\xd3\x02\xef?'
p511
tp512
Rp513
asS'r_size:1250\ne_prm:0.200000\ni_scl:0.288889\ns_scl:0.200000\nsp:0.500000\nreg:0.010000'
p514
(lp515
g3
(g7
S'\x07\xa1\xfcl\xb6!\xef?'
p516
tp517
Rp518
ag3
(g7
S"Q\xf6U#\xae'\xf0?"
p519
tp520
Rp521
ag3
(g7
S'\xbb\x98\x1d\xe6\xfdS\xef?'
p522
tp523
Rp524
asS'r_size:500\ne_prm:0.200000\ni_scl:0.288889\ns_scl:0.200000\nsp:1.000000\nreg:0.010000'
p525
(lp526
g3
(g7
S'\xe1\xa3\xc4Y\xa5\xfd\xef?'
p527
tp528
Rp529
ag3
(g7
S'\x1d\x99\x04\x1fa\xfb\xef?'
p530
tp531
Rp532
ag3
(g7
S'!j\x04\x82\xd4\xc5\xef?'
p533
tp534
Rp535
asS'r_size:500\ne_prm:0.200000\ni_scl:0.733333\ns_scl:0.200000\nsp:1.000000\nreg:0.010000'
p536
(lp537
g3
(g7
S'vu`W\xd7-\xf0?'
p538
tp539
Rp540
ag3
(g7
S'\x12jF\x85\x87\x1e\xf0?'
p541
tp542
Rp543
ag3
(g7
S'\xea~\xea\xd2e"\xf0?'
p544
tp545
Rp546
asS'r_size:750\ne_prm:0.200000\ni_scl:0.377778\ns_scl:0.200000\nsp:0.100000\nreg:0.010000'
p547
(lp548
g3
(g7
S'\xce\x14\x08\xb1\x91\x9c\xee?'
p549
tp550
Rp551
ag3
(g7
S'|P2\xd8\t\x9b\xee?'
p552
tp553
Rp554
ag3
(g7
S':\x1f\x07X\x10\xf6\xee?'
p555
tp556
Rp557
asS'r_size:1000\ne_prm:0.200000\ni_scl:0.822222\ns_scl:0.200000\nsp:1.000000\nreg:0.010000'
p558
(lp559
g3
(g7
S'\xfc\xe1Q\xd5\xe3\x85\xef?'
p560
tp561
Rp562
ag3
(g7
S'Iz\xd8A7%\xef?'
p563
tp564
Rp565
ag3
(g7
S'\xea.\x13,^z\xef?'
p566
tp567
Rp568
asS'r_size:1000\ne_prm:0.200000\ni_scl:0.466667\ns_scl:0.200000\nsp:1.000000\nreg:0.010000'
p569
(lp570
g3
(g7
S'0O\nH}l\xf0?'
p571
tp572
Rp573
ag3
(g7
S'\xc3\xff\xdf1\xc0\x80\xf0?'
p574
tp575
Rp576
ag3
(g7
S'\x99\x7f\x86\x99\x1f\x81\xf0?'
p577
tp578
Rp579
asS'r_size:1000\ne_prm:0.200000\ni_scl:0.822222\ns_scl:0.200000\nsp:0.100000\nreg:0.010000'
p580
(lp581
g3
(g7
S',\x01P4\xa4\xb9\xee?'
p582
tp583
Rp584
ag3
(g7
S'c\xf6\xb3\x11\xa8\x1f\xf2?'
p585
tp586
Rp587
ag3
(g7
S'W\x14\xf3d\xe1v\xf0?'
p588
tp589
Rp590
asS'r_size:500\ne_prm:0.200000\ni_scl:0.466667\ns_scl:0.200000\nsp:0.500000\nreg:0.010000'
p591
(lp592
g3
(g7
S'\xf8\xce$ \x13!\xf0?'
p593
tp594
Rp595
ag3
(g7
S's\xd6D\x13\x99\n\xf0?'
p596
tp597
Rp598
ag3
(g7
S'*\xad\xf8a\xae\x1b\xf0?'
p599
tp600
Rp601
asS'r_size:1000\ne_prm:0.200000\ni_scl:0.644444\ns_scl:0.200000\nsp:1.000000\nreg:0.010000'
p602
(lp603
g3
(g7
S'\x9a\xfc\xdeA?#\xf0?'
p604
tp605
Rp606
ag3
(g7
S'\xb1v\xe9bV1\xf0?'
p607
tp608
Rp609
ag3
(g7
S'\x98m\xaa\xf5(4\xf0?'
p610
tp611
Rp612
asS'r_size:750\ne_prm:0.200000\ni_scl:0.466667\ns_scl:0.200000\nsp:0.100000\nreg:0.010000'
p613
(lp614
g3
(g7
S'\x96\x00\xf0\r<\x9d\xee?'
p615
tp616
Rp617
ag3
(g7
S'\x9f5\xdc14\x9c\xee?'
p618
tp619
Rp620
ag3
(g7
S'\x04\xea\x06\x98\xcf\x08\xf0?'
p621
tp622
Rp623
asS'r_size:1250\ne_prm:0.200000\ni_scl:0.822222\ns_scl:0.200000\nsp:0.100000\nreg:0.010000'
p624
(lp625
g3
(g7
S":\x85\x1b,'\x07\xef?"
p626
tp627
Rp628
ag3
(g7
S'\xdd\x05l\xcdc\xc7\xee?'
p629
tp630
Rp631
ag3
(g7
S'X\xcc3C\x11\x8f\xf0?'
p632
tp633
Rp634
asS'r_size:750\ne_prm:0.200000\ni_scl:0.288889\ns_scl:0.200000\nsp:0.500000\nreg:0.010000'
p635
(lp636
g3
(g7
S'h\xb4\xdf|\x85A\xef?'
p637
tp638
Rp639
ag3
(g7
S']\x19t\x17\xf3(\xef?'
p640
tp641
Rp642
ag3
(g7
S'\x10\x8d\xed\xc3~c\xef?'
p643
tp644
Rp645
asS'r_size:1000\ne_prm:0.200000\ni_scl:0.200000\ns_scl:0.200000\nsp:0.100000\nreg:0.010000'
p646
(lp647
g3
(g7
S'\x9f\xa7Q\x85r\xc9\xee?'
p648
tp649
Rp650
ag3
(g7
S'\xc5[\xf5\xfe\xea\x9a\xee?'
p651
tp652
Rp653
ag3
(g7
S'\x0c\x90U|\xd2\xfd\xee?'
p654
tp655
Rp656
asS'r_size:1250\ne_prm:0.200000\ni_scl:0.466667\ns_scl:0.200000\nsp:1.000000\nreg:0.010000'
p657
(lp658
g3
(g7
S'\xf5eRV.w\xf0?'
p659
tp660
Rp661
ag3
(g7
S'\x8a3C\xb9\xb1~\xf0?'
p662
tp663
Rp664
ag3
(g7
S'F\x88u\xf4\xeaz\xf0?'
p665
tp666
Rp667
asS'r_size:1250\ne_prm:0.200000\ni_scl:0.822222\ns_scl:0.200000\nsp:1.000000\nreg:0.010000'
p668
(lp669
g3
(g7
S'\x8dL\xfdX\xbc\xca\xee?'
p670
tp671
Rp672
ag3
(g7
S'\x18\x98\xb6\xab^\xbc\xed?'
p673
tp674
Rp675
ag3
(g7
S'\x8e\x95\x00\x1d_\xd2\xee?'
p676
tp677
Rp678
asS'r_size:750\ne_prm:0.200000\ni_scl:0.200000\ns_scl:0.200000\nsp:0.500000\nreg:0.010000'
p679
(lp680
g3
(g7
S'|\xa5\x14\x05\n\xba\xee?'
p681
tp682
Rp683
ag3
(g7
S"3\xd2;\xd0\xcb'\xef?"
p684
tp685
Rp686
ag3
(g7
S'\xb1\xd2\xc3\xa4\x90\xbf\xee?'
p687
tp688
Rp689
asS'r_size:1250\ne_prm:0.200000\ni_scl:0.555556\ns_scl:0.200000\nsp:0.100000\nreg:0.010000'
p690
(lp691
g3
(g7
S'R\x8f\xc2\x97\xf5\xa2\xee?'
p692
tp693
Rp694
ag3
(g7
S'\xdfu.\xe1\xdf\x10\xef?'
p695
tp696
Rp697
ag3
(g7
S'\xbf\xc0,\xa3\x16\x91\xef?'
p698
tp699
Rp700
asS'r_size:750\ne_prm:0.200000\ni_scl:0.822222\ns_scl:0.200000\nsp:0.500000\nreg:0.010000'
p701
(lp702
g3
(g7
S'\xf3}\x87\xa3\xfe1\xf1?'
p703
tp704
Rp705
ag3
(g7
S'\xb7\xc9\xb3K\x87h\xf2?'
p706
tp707
Rp708
ag3
(g7
S'\x0b\xc8\x84M\x1b\x1d\xf2?'
p709
tp710
Rp711
asS'r_size:1000\ne_prm:0.200000\ni_scl:0.200000\ns_scl:0.200000\nsp:0.500000\nreg:0.010000'
p712
(lp713
g3
(g7
S'o4)\x04\xdf\xbb\xee?'
p714
tp715
Rp716
ag3
(g7
S'\x1f\x12\xa1\x1aO\t\xef?'
p717
tp718
Rp719
ag3
(g7
S'\x19\x98B,"\xbf\xee?'
p720
tp721
Rp722
asS'r_size:500\ne_prm:0.200000\ni_scl:0.733333\ns_scl:0.200000\nsp:0.100000\nreg:0.010000'
p723
(lp724
g3
(g7
S'EeJ\xcfK\xd2\xee?'
p725
tp726
Rp727
ag3
(g7
S'\x9d\x9c\xb5\xf6O\xdb\xef?'
p728
tp729
Rp730
ag3
(g7
S'=\xd9\x1e\x99r\x16\xef?'
p731
tp732
Rp733
asS'r_size:1250\ne_prm:0.200000\ni_scl:0.733333\ns_scl:0.200000\nsp:0.100000\nreg:0.010000'
p734
(lp735
g3
(g7
S'\x92h\x12>N\x15\xf0?'
p736
tp737
Rp738
ag3
(g7
S'A\x8b\x8e\xeb\x90\xde\xef?'
p739
tp740
Rp741
ag3
(g7
S'u\x9d/\xc4\x9c\xb0\xee?'
p742
tp743
Rp744
asS'r_size:500\ne_prm:0.200000\ni_scl:0.466667\ns_scl:0.200000\nsp:1.000000\nreg:0.010000'
p745
(lp746
g3
(g7
S'y+\xf1\xf3\xb6P\xf0?'
p747
tp748
Rp749
ag3
(g7
S')]\xfd\xd0\x9e=\xf0?'
p750
tp751
Rp752
ag3
(g7
S'\x14\xa2\xfc\xfe$@\xf0?'
p753
tp754
Rp755
asS'r_size:1250\ne_prm:0.200000\ni_scl:0.288889\ns_scl:0.200000\nsp:0.100000\nreg:0.010000'
p756
(lp757
g3
(g7
S'\x80\x85\x14(?\xa2\xee?'
p758
tp759
Rp760
ag3
(g7
S"\x0e\xe9^'l\xad\xee?"
p761
tp762
Rp763
ag3
(g7
S'A\x9f\xb7\x91^\xcf\xee?'
p764
tp765
Rp766
asS'r_size:1250\ne_prm:0.200000\ni_scl:0.377778\ns_scl:0.200000\nsp:0.100000\nreg:0.010000'
p767
(lp768
g3
(g7
S'3\x06\xcf\xab\x98\x98\xee?'
p769
tp770
Rp771
ag3
(g7
S'\x91\xa2\xe9m\x7f\x84\xef?'
p772
tp773
Rp774
ag3
(g7
S'\xa8:0\xee\xa9\x9e\xee?'
p775
tp776
Rp777
asS'r_size:500\ne_prm:0.200000\ni_scl:0.822222\ns_scl:0.200000\nsp:0.100000\nreg:0.010000'
p778
(lp779
g3
(g7
S'\xc3s\xc2\x01\xa7\xac\xf0?'
p780
tp781
Rp782
ag3
(g7
S'\xcb\xe2\xbc[T\xbd\xee?'
p783
tp784
Rp785
ag3
(g7
S'*\xf4\x9c\x99B\x8f\xf1?'
p786
tp787
Rp788
asS'r_size:1250\ne_prm:0.200000\ni_scl:0.288889\ns_scl:0.200000\nsp:1.000000\nreg:0.010000'
p789
(lp790
g3
(g7
S'\xeer$r|d\xf0?'
p791
tp792
Rp793
ag3
(g7
S'\xd2;!I\x83Q\xf0?'
p794
tp795
Rp796
ag3
(g7
S'S\x92\xf20hS\xf0?'
p797
tp798
Rp799
asS'r_size:1000\ne_prm:0.200000\ni_scl:0.555556\ns_scl:0.200000\nsp:0.500000\nreg:0.010000'
p800
(lp801
g3
(g7
S'e\xb5\x1f\xef\xb8A\xf0?'
p802
tp803
Rp804
ag3
(g7
S'\xdd\x9b\xd3\xb7h\x9b\xf0?'
p805
tp806
Rp807
ag3
(g7
S'V\xd6T0\xd7;\xf0?'
p808
tp809
Rp810
asS'r_size:750\ne_prm:0.200000\ni_scl:0.288889\ns_scl:0.200000\nsp:0.100000\nreg:0.010000'
p811
(lp812
g3
(g7
S'\x1c\xf0C\xfe\x83\x96\xef?'
p813
tp814
Rp815
ag3
(g7
S'\xf1\xf3\x84\xe0~\x95\xee?'
p816
tp817
Rp818
ag3
(g7
S'\xe3I\xc4\t/\xd0\xee?'
p819
tp820
Rp821
asS'r_size:1250\ne_prm:0.200000\ni_scl:0.644444\ns_scl:0.200000\nsp:0.100000\nreg:0.010000'
p822
(lp823
g3
(g7
S'/\xda\xe0\r\xae\x04\xef?'
p824
tp825
Rp826
ag3
(g7
S'\x19\xb4\xe5a\xb9\xb1\xef?'
p827
tp828
Rp829
ag3
(g7
S"\xa3<'\xbf$y\xef?"
p830
tp831
Rp832
asS'r_size:1000\ne_prm:0.200000\ni_scl:0.644444\ns_scl:0.200000\nsp:0.500000\nreg:0.010000'
p833
(lp834
g3
(g7
S'G1\x98\x83\xfc\x8d\xf0?'
p835
tp836
Rp837
ag3
(g7
S'\\\x7f44b\xb9\xf0?'
p838
tp839
Rp840
ag3
(g7
S'\xc3\x9d\xa7\xd4h\xb1\xf0?'
p841
tp842
Rp843
asS'r_size:500\ne_prm:0.200000\ni_scl:0.200000\ns_scl:0.200000\nsp:0.100000\nreg:0.010000'
p844
(lp845
g3
(g7
S'Pm\xbc\x01\xd1\x9a\xee?'
p846
tp847
Rp848
ag3
(g7
S'2\x9c\x9b\xd6W\xfc\xee?'
p849
tp850
Rp851
ag3
(g7
S'\xe3\xbc^FJ\xf5\xee?'
p852
tp853
Rp854
asS'r_size:1250\ne_prm:0.200000\ni_scl:0.466667\ns_scl:0.200000\nsp:0.500000\nreg:0.010000'
p855
(lp856
g3
(g7
S'\x84\x0c\xb2\xb0\x1ck\xf0?'
p857
tp858
Rp859
ag3
(g7
S'\t\xb6\xe1l\xc3\x07\xf0?'
p860
tp861
Rp862
ag3
(g7
S'\xd6\x90 u\x06Q\xf0?'
p863
tp864
Rp865
asS'r_size:1250\ne_prm:0.200000\ni_scl:0.555556\ns_scl:0.200000\nsp:0.500000\nreg:0.010000'
p866
(lp867
g3
(g7
S'\x8b\x9fw\xf8b\x7f\xf0?'
p868
tp869
Rp870
ag3
(g7
S'\xbfh\x1a7\x19h\xf0?'
p871
tp872
Rp873
ag3
(g7
S'r\x15\x99q\xb9\x9e\xf0?'
p874
tp875
Rp876
asS'r_size:1000\ne_prm:0.200000\ni_scl:0.377778\ns_scl:0.200000\nsp:1.000000\nreg:0.010000'
p877
(lp878
g3
(g7
S'\x16w\xce\xb0\xeci\xf0?'
p879
tp880
Rp881
ag3
(g7
S'\xf4<\x01n\x97}\xf0?'
p882
tp883
Rp884
ag3
(g7
S'S%\xf5\xf7\xc5o\xf0?'
p885
tp886
Rp887
asS'r_size:1000\ne_prm:0.200000\ni_scl:0.822222\ns_scl:0.200000\nsp:0.500000\nreg:0.010000'
p888
(lp889
g3
(g7
S'k\xda3\xdcB\x87\xf1?'
p890
tp891
Rp892
ag3
(g7
S'\x10xH\x97\xd0\x9c\xf1?'
p893
tp894
Rp895
ag3
(g7
S'\xba\xaeQYQw\xf1?'
p896
tp897
Rp898
asS'r_size:750\ne_prm:0.200000\ni_scl:0.200000\ns_scl:0.200000\nsp:1.000000\nreg:0.010000'
p899
(lp900
g3
(g7
S'\x0e\x8e\x86\xe7%\xe6\xef?'
p901
tp902
Rp903
ag3
(g7
S'\ro!\xf4\x94\xd0\xef?'
p904
tp905
Rp906
ag3
(g7
S'!q\x877\xb7\xc1\xef?'
p907
tp908
Rp909
asS'r_size:1000\ne_prm:0.200000\ni_scl:0.377778\ns_scl:0.200000\nsp:0.100000\nreg:0.010000'
p910
(lp911
g3
(g7
S'\x14\x1c\xdaY\x90\xb3\xee?'
p912
tp913
Rp914
ag3
(g7
S'~h\x8f\x14\x90\xa0\xee?'
p915
tp916
Rp917
ag3
(g7
S'ne\x85vl\xa1\xee?'
p918
tp919
Rp920
asS'r_size:750\ne_prm:0.200000\ni_scl:0.822222\ns_scl:0.200000\nsp:1.000000\nreg:0.010000'
p921
(lp922
g3
(g7
S'\x12(\x87\xb1\xa1\xcd\xef?'
p923
tp924
Rp925
ag3
(g7
S'p\x90]]k\xb3\xef?'
p926
tp927
Rp928
ag3
(g7
S'\x04,\x0f\x13\x0e\x9f\xef?'
p929
tp930
Rp931
asS'r_size:750\ne_prm:0.200000\ni_scl:0.733333\ns_scl:0.200000\nsp:1.000000\nreg:0.010000'
p932
(lp933
g3
(g7
S':E\xce\xb1\xb2\x15\xf0?'
p934
tp935
Rp936
ag3
(g7
S'\x91bR9\xb7\xe3\xef?'
p937
tp938
Rp939
ag3
(g7
S'\xae\x98P"*\x1d\xf0?'
p940
tp941
Rp942
asS'r_size:500\ne_prm:0.200000\ni_scl:0.555556\ns_scl:0.200000\nsp:1.000000\nreg:0.010000'
p943
(lp944
g3
(g7
S'\xe9\xf9*/|J\xf0?'
p945
tp946
Rp947
ag3
(g7
S'y\x9a\xbe\xbd\xf0F\xf0?'
p948
tp949
Rp950
ag3
(g7
S'\x8c\x08i\x84\xe8M\xf0?'
p951
tp952
Rp953
asS'r_size:1250\ne_prm:0.200000\ni_scl:0.377778\ns_scl:0.200000\nsp:1.000000\nreg:0.010000'
p954
(lp955
g3
(g7
S'\n\xb8s:\xb4x\xf0?'
p956
tp957
Rp958
ag3
(g7
S'\x89=\xa7f\x99t\xf0?'
p959
tp960
Rp961
ag3
(g7
S'/p\x0c\x1e\xdd\x93\xf0?'
p962
tp963
Rp964
asS'r_size:500\ne_prm:0.200000\ni_scl:0.822222\ns_scl:0.200000\nsp:1.000000\nreg:0.010000'
p965
(lp966
g3
(g7
S'\xb7\xab\x84\xf4\xba\xf6\xef?'
p967
tp968
Rp969
ag3
(g7
S'1\x18\x8a\x93\xdd\t\xf0?'
p970
tp971
Rp972
ag3
(g7
S'\xa5~\xdd\xb0\xe2\xfa\xef?'
p973
tp974
Rp975
asS'r_size:500\ne_prm:0.200000\ni_scl:0.733333\ns_scl:0.200000\nsp:0.500000\nreg:0.010000'
p976
(lp977
g3
(g7
S'\x93\xef\x1bA0Z\xf1?'
p978
tp979
Rp980
ag3
(g7
S'\x9e\xec\x96\xc8~\xf8\xf0?'
p981
tp982
Rp983
ag3
(g7
S'@\xf6\xa4\xa4M\x17\xf1?'
p984
tp985
Rp986
asS'r_size:1000\ne_prm:0.200000\ni_scl:0.466667\ns_scl:0.200000\nsp:0.500000\nreg:0.010000'
p987
(lp988
g3
(g7
S'_\xf1\xdd\xbd\x8f-\xf0?'
p989
tp990
Rp991
ag3
(g7
S'\x88&\x0f\x96G\x07\xf0?'
p992
tp993
Rp994
ag3
(g7
S'@Z\x0f\xae<\x11\xf0?'
p995
tp996
Rp997
asS'r_size:1250\ne_prm:0.200000\ni_scl:0.644444\ns_scl:0.200000\nsp:0.500000\nreg:0.010000'
p998
(lp999
g3
(g7
S'\x15B-j\xc5k\xf0?'
p1000
tp1001
Rp1002
ag3
(g7
S'\xb0\xfb\x83\x8b\xab\xb1\xf0?'
p1003
tp1004
Rp1005
ag3
(g7
S'\xaf\xf6\x96>t\x94\xf0?'
p1006
tp1007
Rp1008
asS'r_size:500\ne_prm:0.200000\ni_scl:0.911111\ns_scl:0.200000\nsp:0.100000\nreg:0.010000'
p1009
(lp1010
g3
(g7
S'\xb5#\x98]6R\xf0?'
p1011
tp1012
Rp1013
ag3
(g7
S'\xe2\xd4\xc0\xf5\xe0\x1a\xf0?'
p1014
tp1015
Rp1016
ag3
(g7
S'W/\xb8\xfdk\xc4\xee?'
p1017
tp1018
Rp1019
asS'r_size:500\ne_prm:0.200000\ni_scl:0.377778\ns_scl:0.200000\nsp:0.500000\nreg:0.010000'
p1020
(lp1021
g3
(g7
S'\x81\x10!8\xfc\x11\xf0?'
p1022
tp1023
Rp1024
ag3
(g7
S'\xb4\xf3\xf3\xc1\xe4\x9d\xef?'
p1025
tp1026
Rp1027
ag3
(g7
S'<7\xc7\x958\x08\xf0?'
p1028
tp1029
Rp1030
asS'r_size:750\ne_prm:0.200000\ni_scl:0.200000\ns_scl:0.200000\nsp:0.100000\nreg:0.010000'
p1031
(lp1032
g3
(g7
S'\xaen\x15\xd1\x15V\xef?'
p1033
tp1034
Rp1035
ag3
(g7
S'\xf1\xb9>\x1c\x99\xa4\xee?'
p1036
tp1037
Rp1038
ag3
(g7
S'\xbem\xaf:\x19\xe6\xee?'
p1039
tp1040
Rp1041
asS'r_size:1000\ne_prm:0.200000\ni_scl:0.288889\ns_scl:0.200000\nsp:0.500000\nreg:0.010000'
p1042
(lp1043
g3
(g7
S'r\xd1x\xdb\xf0e\xef?'
p1044
tp1045
Rp1046
ag3
(g7
S'\xd9?\x9e\xde\xaeL\xef?'
p1047
tp1048
Rp1049
ag3
(g7
S'\x84\xa1\x85\\g,\xef?'
p1050
tp1051
Rp1052
asS'r_size:750\ne_prm:0.200000\ni_scl:0.822222\ns_scl:0.200000\nsp:0.100000\nreg:0.010000'
p1053
(lp1054
g3
(g7
S'\x0bQo\xf1\xac\xbf\xee?'
p1055
tp1056
Rp1057
ag3
(g7
S'jZ[\xed\xd6R\xf0?'
p1058
tp1059
Rp1060
ag3
(g7
S'!\xab\x86\x8b\xc41\xef?'
p1061
tp1062
Rp1063
asS'r_size:750\ne_prm:0.200000\ni_scl:0.644444\ns_scl:0.200000\nsp:0.100000\nreg:0.010000'
p1064
(lp1065
g3
(g7
S'\xf6\xea\xc32\x95!\xf0?'
p1066
tp1067
Rp1068
ag3
(g7
S'p\x12~MK\xb2\xee?'
p1069
tp1070
Rp1071
ag3
(g7
S'\xed\xeb\x19%%\xf4\xee?'
p1072
tp1073
Rp1074
asS'r_size:500\ne_prm:0.200000\ni_scl:0.200000\ns_scl:0.200000\nsp:0.500000\nreg:0.010000'
p1075
(lp1076
g3
(g7
S'5\x7f}\xdc\xe0\xed\xee?'
p1077
tp1078
Rp1079
ag3
(g7
S'\x9fI\xbd\x0c\xc1\xc3\xee?'
p1080
tp1081
Rp1082
ag3
(g7
S'G\x03\xc5pY\xcc\xee?'
p1083
tp1084
Rp1085
as.